target datalayout = "e-m:e-p270:32:32-p271:32:32-p272:64:64-i64:64-i128:128-f80:128-n8:16:32:64-S128"
target triple = "x86_64-pc-linux-gnu"

%"class.sat::literal" = type { i32 }
%class.symbol = type { ptr }
%"class.intblast::translator_trail" = type { %class.bv2int_translator_trail, ptr }
%class.bv2int_translator_trail = type { ptr }
%"class.sat::extension" = type { ptr, i8, i32, %class.symbol, ptr }
%"class.euf::th_internalizer" = type { ptr, %class.ptr_vector, %class.svector }
%class.ptr_vector = type { %class.vector }
%class.vector = type { ptr }
%class.svector = type { %class.vector.0 }
%class.vector.0 = type { ptr }
%"class.euf::th_decompile" = type { ptr }
%class.ptr_vector.24 = type { %class.vector.25 }
%class.vector.25 = type { ptr }
%class.svector.5 = type { %class.vector.6 }
%class.vector.6 = type { ptr }
%class.arith_util = type { ptr, ptr }
%class.bv_util = type { %class.bv_recognizers, ptr, ptr }
%class.bv_recognizers = type { i32 }
%class.ref_vector.85 = type { %class.ref_vector_core.86 }
%class.ref_vector_core.86 = type { %class.ref_manager_wrapper.87, %class.ptr_vector.88 }
%class.ref_manager_wrapper.87 = type { ptr }
%class.ptr_vector.88 = type { %class.vector.89 }
%class.vector.89 = type { ptr }
%class.scoped_ptr.97 = type { ptr }
%class.statistics = type { %class.svector.135, %class.svector.137 }
%class.svector.135 = type { %class.vector.136 }
%class.vector.136 = type { ptr }
%class.svector.137 = type { %class.vector.138 }
%class.vector.138 = type { ptr }
%class.svector.59 = type { %class.vector.60 }
%class.vector.60 = type { ptr }
%class.ref_vector = type { %class.ref_vector_core }
%class.ref_vector_core = type { %class.ref_manager_wrapper, %class.ptr_vector.24 }
%class.ref_manager_wrapper = type { ptr }
%"class.intblast::solver" = type <{ %"class.euf::th_euf_solver.base", [4 x i8], ptr, ptr, ptr, %class.bv_util, %class.arith_util, %"class.intblast::translator_trail", %class.bv2int_translator, %class.scoped_ptr.97, %class.svector.59, %class.statistics, i8, [3 x i8], i32, i32, [4 x i8] }>
%"class.euf::th_euf_solver.base" = type <{ %"class.euf::th_solver", ptr, %class.ptr_vector, %class.svector.5, i32 }>
%"class.euf::th_solver" = type { %"class.sat::extension", %"class.euf::th_model_builder", %"class.euf::th_decompile", %"class.euf::th_internalizer", ptr }
%"class.euf::th_model_builder" = type { ptr }
%class.bv2int_translator = type <{ ptr, ptr, %class.bv_util, %class.arith_util, %class.obj_map.155, %class.ref_vector, %class.ref_vector, %class.ref_vector.85, %class.ptr_vector.160, %class.ptr_vector.160, %class.ref_vector, %class.ref_vector, i8, [7 x i8] }>
%class.obj_map.155 = type { %class.core_hashtable.156 }
%class.core_hashtable.156 = type <{ ptr, i32, i32, i32, [4 x i8] }>
%class.ptr_vector.160 = type { %class.vector.161 }
%class.vector.161 = type { ptr }
%"class.euf::th_euf_solver" = type <{ %"class.euf::th_solver", ptr, %class.ptr_vector, %class.svector.5, i32, [4 x i8] }>

@_ZN3sat12null_literalE = linkonce_odr hidden constant %"class.sat::literal" { i32 -2 }, comdat, align 4

; Function Attrs: mustprogress nounwind uwtable
define linkonce_odr hidden void @_ZN3sat7literal3negEv(ptr noundef nonnull align 4 dereferenceable(4) %0) #6 comdat align 2 {
  %2 = alloca ptr, align 8
  store ptr %0, ptr %2, align 8, !tbaa !446
  %3 = load ptr, ptr %2, align 8
  %4 = getelementptr inbounds nuw %"class.sat::literal", ptr %3, i32 0, i32 0
  %5 = load i32, ptr %4, align 4, !tbaa !447
  %6 = xor i32 %5, 1
  %7 = getelementptr inbounds nuw %"class.sat::literal", ptr %3, i32 0, i32 0
  store i32 %6, ptr %7, align 4, !tbaa !447
  ret void
}

; Function Attrs: mustprogress uwtable
define linkonce_odr hidden void @_ZN3euf13th_euf_solver10force_pushEv(ptr noundef nonnull align 8 dereferenceable(108) %0) #4 comdat align 2 {
  %2 = alloca ptr, align 8
  store ptr %0, ptr %2, align 8, !tbaa !431
  %3 = load ptr, ptr %2, align 8
  br label %4

4:                                                ; preds = %12, %1
  %5 = getelementptr inbounds nuw %"class.euf::th_euf_solver", ptr %3, i32 0, i32 4
  %6 = load i32, ptr %5, align 8, !tbaa !443
  %7 = icmp ugt i32 %6, 0
  br i1 %7, label %8, label %16

8:                                                ; preds = %4
  %9 = load ptr, ptr %3, align 8, !tbaa !21
  %10 = getelementptr inbounds ptr, ptr %9, i64 64
  %11 = load ptr, ptr %10, align 8
  call void %11(ptr noundef nonnull align 8 dereferenceable(108) %3)
  br label %12

12:                                               ; preds = %8
  %13 = getelementptr inbounds nuw %"class.euf::th_euf_solver", ptr %3, i32 0, i32 4
  %14 = load i32, ptr %13, align 8, !tbaa !443
  %15 = add i32 %14, -1
  store i32 %15, ptr %13, align 8, !tbaa !443
  br label %4, !llvm.loop !444

16:                                               ; preds = %4
  ret void
}

; Function Attrs: mustprogress uwtable
define hidden i32 @_ZN8intblast6solver11internalizeEP4exprbb(ptr noundef nonnull align 8 dereferenceable(420) %0, ptr noundef %1, i1 noundef zeroext %2, i1 noundef zeroext %3) unnamed_addr #4 align 2 {
  %5 = alloca %"class.sat::literal", align 4
  %6 = alloca ptr, align 8
  %7 = alloca ptr, align 8
  %8 = alloca i8, align 1
  %9 = alloca i8, align 1
  store ptr %0, ptr %6, align 8, !tbaa !19
  store ptr %1, ptr %7, align 8, !tbaa !437
  %10 = zext i1 %2 to i8
  store i8 %10, ptr %8, align 1, !tbaa !439
  %11 = zext i1 %3 to i8
  store i8 %11, ptr %9, align 1, !tbaa !439
  %12 = load ptr, ptr %6, align 8
  call void @_ZN3euf13th_euf_solver10force_pushEv(ptr noundef nonnull align 8 dereferenceable(108) %12)
  %13 = getelementptr inbounds i8, ptr %12, i64 48
  %14 = getelementptr inbounds nuw %"class.intblast::solver", ptr %12, i32 0, i32 4
  %15 = load ptr, ptr %14, align 8, !tbaa !27
  %16 = load ptr, ptr %7, align 8, !tbaa !437
  %17 = load i8, ptr %8, align 1, !tbaa !439, !range !440, !noundef !441
  %18 = trunc i8 %17 to i1
  %19 = load i8, ptr %9, align 1, !tbaa !439, !range !440, !noundef !441
  %20 = trunc i8 %19 to i1
  %21 = call noundef zeroext i1 @_ZN3euf15th_internalizer9visit_recER11ast_managerP4exprbb(ptr noundef nonnull align 8 dereferenceable(24) %13, ptr noundef nonnull align 8 dereferenceable(976) %15, ptr noundef %16, i1 noundef zeroext %18, i1 noundef zeroext %20)
  br i1 %21, label %23, label %22

22:                                               ; preds = %4
  call void @llvm.memcpy.p0.p0.i64(ptr align 4 %5, ptr align 4 @_ZN3sat12null_literalE, i64 4, i1 false), !tbaa.struct !442
  br label %31

23:                                               ; preds = %4
  %24 = load ptr, ptr %7, align 8, !tbaa !437
  %25 = call i32 @_ZNK3euf13th_euf_solver12expr2literalEP4expr(ptr noundef nonnull align 8 dereferenceable(108) %12, ptr noundef %24)
  %26 = getelementptr inbounds nuw %"class.sat::literal", ptr %5, i32 0, i32 0
  store i32 %25, ptr %26, align 4
  %27 = load i8, ptr %8, align 1, !tbaa !439, !range !440, !noundef !441
  %28 = trunc i8 %27 to i1
  br i1 %28, label %29, label %30

29:                                               ; preds = %23
  call void @_ZN3sat7literal3negEv(ptr noundef nonnull align 4 dereferenceable(4) %5)
  br label %30

30:                                               ; preds = %29, %23
  br label %31

31:                                               ; preds = %30, %22
  %32 = getelementptr inbounds nuw %"class.sat::literal", ptr %5, i32 0, i32 0
  %33 = load i32, ptr %32, align 4
  ret i32 %33
}

; Function Attrs: uwtable
define hidden i32 @_ZThn48_N8intblast6solver11internalizeEP4exprbb(ptr noundef %0, ptr noundef %1, i1 noundef zeroext %2, i1 noundef zeroext %3) unnamed_addr #0 align 2 {
  %5 = alloca %"class.sat::literal", align 4
  %6 = alloca ptr, align 8
  %7 = alloca ptr, align 8
  %8 = alloca i8, align 1
  %9 = alloca i8, align 1
  store ptr %0, ptr %6, align 8, !tbaa !19
  store ptr %1, ptr %7, align 8, !tbaa !437
  %10 = zext i1 %2 to i8
  store i8 %10, ptr %8, align 1, !tbaa !439
  %11 = zext i1 %3 to i8
  store i8 %11, ptr %9, align 1, !tbaa !439
  %12 = load ptr, ptr %6, align 8
  %13 = getelementptr inbounds i8, ptr %12, i64 -48
  %14 = load ptr, ptr %7, align 8, !tbaa !437
  %15 = load i8, ptr %8, align 1, !tbaa !439, !range !440, !noundef !441
  %16 = trunc i8 %15 to i1
  %17 = load i8, ptr %9, align 1, !tbaa !439, !range !440, !noundef !441
  %18 = trunc i8 %17 to i1
  %19 = tail call i32 @_ZN8intblast6solver11internalizeEP4exprbb(ptr noundef nonnull align 8 dereferenceable(420) %13, ptr noundef %14, i1 noundef zeroext %16, i1 noundef zeroext %18)
  %20 = getelementptr inbounds nuw %"class.sat::literal", ptr %5, i32 0, i32 0
  store i32 %19, ptr %20, align 4
  %21 = getelementptr inbounds nuw %"class.sat::literal", ptr %5, i32 0, i32 0
  %22 = load i32, ptr %21, align 4
  ret i32 %22
}